; Function Attrs: mustprogress uwtable
define void @_ZN6icu_778Calendar3setEiiiii(ptr noundef nonnull align 8 dereferenceable(192) %0, i32 noundef %1, i32 noundef %2, i32 noundef %3, i32 noundef %4, i32 noundef %5) local_unnamed_addr #1 align 2 {
  %7 = alloca i32, align 4
  %8 = getelementptr inbounds nuw i8, ptr %0, i64 152
  %9 = load i8, ptr %8, align 8
  %10 = and i8 %9, 8
  %.not.i = icmp eq i8 %10, 0
  br i1 %.not.i, label %15, label %11

11:                                               ; preds = %6
  call void @llvm.lifetime.start.p0(i64 4, ptr nonnull %7) #25
  store i32 0, ptr %7, align 4, !tbaa !13
  %12 = load ptr, ptr %0, align 8, !tbaa !15
  %13 = getelementptr inbounds nuw i8, ptr %12, i64 256
  %14 = load ptr, ptr %13, align 8
  call void %14(ptr noundef nonnull align 8 dereferenceable(192) %0, ptr noundef nonnull align 4 dereferenceable(4) %7)
  call void @llvm.lifetime.end.p0(i64 4, ptr nonnull %7) #25
  br label %15

15:                                               ; preds = %11, %6
  %16 = getelementptr inbounds nuw i8, ptr %0, i64 12
  store i32 %1, ptr %16, align 4, !tbaa !12
  %17 = getelementptr inbounds nuw i8, ptr %0, i64 128
  %18 = load i8, ptr %17, align 8, !tbaa !40
  %19 = icmp eq i8 %18, 127
  br i1 %19, label %20, label %39

20:                                               ; preds = %15
  store i8 1, ptr %17, align 8, !tbaa !40
  %21 = getelementptr inbounds nuw i8, ptr %0, i64 104
  br label %.preheader.i.i

.preheader.i.i:                                   ; preds = %32, %20
  %.01119.i.i = phi i32 [ 0, %20 ], [ %36, %32 ]
  %22 = load i8, ptr %17, align 8, !tbaa !40
  br label %23

23:                                               ; preds = %23, %.preheader.i.i
  %indvars.iv.i.i = phi i64 [ 0, %.preheader.i.i ], [ %indvars.iv.next.i.i, %23 ]
  %.01217.i.i = phi i32 [ 127, %.preheader.i.i ], [ %.1.i.i, %23 ]
  %.01316.i.i = phi i32 [ -1, %.preheader.i.i ], [ %.114.i.i, %23 ]
  %24 = getelementptr inbounds nuw [24 x i8], ptr %21, i64 0, i64 %indvars.iv.i.i
  %25 = load i8, ptr %24, align 1, !tbaa !47
  %26 = sext i8 %25 to i32
  %27 = icmp sgt i8 %25, %22
  %28 = icmp sgt i32 %.01217.i.i, %26
  %or.cond.i.i = select i1 %27, i1 %28, i1 false
  %29 = trunc nuw nsw i64 %indvars.iv.i.i to i32
  %.114.i.i = select i1 %or.cond.i.i, i32 %29, i32 %.01316.i.i
  %.1.i.i = select i1 %or.cond.i.i, i32 %26, i32 %.01217.i.i
  %indvars.iv.next.i.i = add nuw nsw i64 %indvars.iv.i.i, 1
  %exitcond.not.i.i = icmp eq i64 %indvars.iv.next.i.i, 24
  br i1 %exitcond.not.i.i, label %30, label %23, !llvm.loop !68

30:                                               ; preds = %23
  %31 = icmp sgt i32 %.114.i.i, -1
  br i1 %31, label %32, label %_ZN6icu_778Calendar16recalculateStampEv.exit.i

32:                                               ; preds = %30
  %33 = add i8 %22, 1
  store i8 %33, ptr %17, align 8, !tbaa !40
  %34 = zext nneg i32 %.114.i.i to i64
  %35 = getelementptr inbounds nuw [24 x i8], ptr %21, i64 0, i64 %34
  store i8 %33, ptr %35, align 1, !tbaa !47
  %36 = add nuw nsw i32 %.01119.i.i, 1
  %exitcond21.not.i.i = icmp eq i32 %36, 24
  br i1 %exitcond21.not.i.i, label %._crit_edge.i.i, label %.preheader.i.i, !llvm.loop !69

._crit_edge.i.i:                                  ; preds = %32
  %.pre.i.i = load i8, ptr %17, align 8, !tbaa !40
  br label %_ZN6icu_778Calendar16recalculateStampEv.exit.i

_ZN6icu_778Calendar16recalculateStampEv.exit.i:   ; preds = %30, %._crit_edge.i.i
  %37 = phi i8 [ %.pre.i.i, %._crit_edge.i.i ], [ %22, %30 ]
  %38 = add i8 %37, 1
  br label %39

39:                                               ; preds = %_ZN6icu_778Calendar16recalculateStampEv.exit.i, %15
  %40 = phi i8 [ %38, %_ZN6icu_778Calendar16recalculateStampEv.exit.i ], [ %18, %15 ]
  %41 = add i8 %40, 1
  %42 = getelementptr inbounds nuw i8, ptr %0, i64 104
  %43 = getelementptr inbounds nuw i8, ptr %0, i64 105
  store i8 %40, ptr %43, align 1, !tbaa !47
  %44 = load i8, ptr %8, align 8
  %45 = and i8 %44, -12
  store i8 %45, ptr %8, align 8
  %46 = getelementptr inbounds nuw i8, ptr %0, i64 16
  store i32 %2, ptr %46, align 8, !tbaa !12
  %47 = icmp eq i8 %41, 127
  br i1 %47, label %48, label %67

48:                                               ; preds = %39
  store i8 1, ptr %17, align 8, !tbaa !40
  br label %.preheader.i.i6

.preheader.i.i6:                                  ; preds = %59, %48
  %.01119.i.i7 = phi i32 [ 0, %48 ], [ %63, %59 ]
  %49 = load i8, ptr %17, align 8, !tbaa !40
  br label %50

50:                                               ; preds = %50, %.preheader.i.i6
  %indvars.iv.i.i8 = phi i64 [ 0, %.preheader.i.i6 ], [ %indvars.iv.next.i.i14, %50 ]
  %.01217.i.i9 = phi i32 [ 127, %.preheader.i.i6 ], [ %.1.i.i13, %50 ]
  %.01316.i.i10 = phi i32 [ -1, %.preheader.i.i6 ], [ %.114.i.i12, %50 ]
  %51 = getelementptr inbounds nuw [24 x i8], ptr %42, i64 0, i64 %indvars.iv.i.i8
  %52 = load i8, ptr %51, align 1, !tbaa !47
  %53 = sext i8 %52 to i32
  %54 = icmp sgt i8 %52, %49
  %55 = icmp sgt i32 %.01217.i.i9, %53
  %or.cond.i.i11 = select i1 %54, i1 %55, i1 false
  %56 = trunc nuw nsw i64 %indvars.iv.i.i8 to i32
  %.114.i.i12 = select i1 %or.cond.i.i11, i32 %56, i32 %.01316.i.i10
  %.1.i.i13 = select i1 %or.cond.i.i11, i32 %53, i32 %.01217.i.i9
  %indvars.iv.next.i.i14 = add nuw nsw i64 %indvars.iv.i.i8, 1
  %exitcond.not.i.i15 = icmp eq i64 %indvars.iv.next.i.i14, 24
  br i1 %exitcond.not.i.i15, label %57, label %50, !llvm.loop !68

57:                                               ; preds = %50
  %58 = icmp sgt i32 %.114.i.i12, -1
  br i1 %58, label %59, label %_ZN6icu_778Calendar16recalculateStampEv.exit.i16

59:                                               ; preds = %57
  %60 = add i8 %49, 1
  store i8 %60, ptr %17, align 8, !tbaa !40
  %61 = zext nneg i32 %.114.i.i12 to i64
  %62 = getelementptr inbounds nuw [24 x i8], ptr %42, i64 0, i64 %61
  store i8 %60, ptr %62, align 1, !tbaa !47
  %63 = add nuw nsw i32 %.01119.i.i7, 1
  %exitcond21.not.i.i17 = icmp eq i32 %63, 24
  br i1 %exitcond21.not.i.i17, label %._crit_edge.i.i18, label %.preheader.i.i6, !llvm.loop !69

._crit_edge.i.i18:                                ; preds = %59
  %.pre.i.i19 = load i8, ptr %17, align 8, !tbaa !40
  br label %_ZN6icu_778Calendar16recalculateStampEv.exit.i16

_ZN6icu_778Calendar16recalculateStampEv.exit.i16: ; preds = %57, %._crit_edge.i.i18
  %64 = phi i8 [ %.pre.i.i19, %._crit_edge.i.i18 ], [ %49, %57 ]
  %65 = add i8 %64, 1
  %.pre = load i8, ptr %8, align 8
  %66 = and i8 %.pre, -12
  br label %67

67:                                               ; preds = %_ZN6icu_778Calendar16recalculateStampEv.exit.i16, %39
  %68 = phi i8 [ %66, %_ZN6icu_778Calendar16recalculateStampEv.exit.i16 ], [ %45, %39 ]
  %69 = phi i8 [ %65, %_ZN6icu_778Calendar16recalculateStampEv.exit.i16 ], [ %41, %39 ]
  %70 = add i8 %69, 1
  %71 = getelementptr inbounds nuw i8, ptr %0, i64 106
  store i8 %69, ptr %71, align 2, !tbaa !47
  store i8 %68, ptr %8, align 8
  %72 = getelementptr inbounds nuw i8, ptr %0, i64 28
  store i32 %3, ptr %72, align 4, !tbaa !12
  %73 = icmp eq i8 %70, 127
  br i1 %73, label %74, label %92

74:                                               ; preds = %67
  store i8 1, ptr %17, align 8, !tbaa !40
  br label %.preheader.i.i22

.preheader.i.i22:                                 ; preds = %85, %74
  %.01119.i.i23 = phi i32 [ 0, %74 ], [ %89, %85 ]
  %75 = load i8, ptr %17, align 8, !tbaa !40
  br label %76

76:                                               ; preds = %76, %.preheader.i.i22
  %indvars.iv.i.i24 = phi i64 [ 0, %.preheader.i.i22 ], [ %indvars.iv.next.i.i30, %76 ]
  %.01217.i.i25 = phi i32 [ 127, %.preheader.i.i22 ], [ %.1.i.i29, %76 ]
  %.01316.i.i26 = phi i32 [ -1, %.preheader.i.i22 ], [ %.114.i.i28, %76 ]
  %77 = getelementptr inbounds nuw [24 x i8], ptr %42, i64 0, i64 %indvars.iv.i.i24
  %78 = load i8, ptr %77, align 1, !tbaa !47
  %79 = sext i8 %78 to i32
  %80 = icmp sgt i8 %78, %75
  %81 = icmp sgt i32 %.01217.i.i25, %79
  %or.cond.i.i27 = select i1 %80, i1 %81, i1 false
  %82 = trunc nuw nsw i64 %indvars.iv.i.i24 to i32
  %.114.i.i28 = select i1 %or.cond.i.i27, i32 %82, i32 %.01316.i.i26
  %.1.i.i29 = select i1 %or.cond.i.i27, i32 %79, i32 %.01217.i.i25
  %indvars.iv.next.i.i30 = add nuw nsw i64 %indvars.iv.i.i24, 1
  %exitcond.not.i.i31 = icmp eq i64 %indvars.iv.next.i.i30, 24
  br i1 %exitcond.not.i.i31, label %83, label %76, !llvm.loop !68

83:                                               ; preds = %76
  %84 = icmp sgt i32 %.114.i.i28, -1
  br i1 %84, label %85, label %_ZN6icu_778Calendar16recalculateStampEv.exit.i32

85:                                               ; preds = %83
  %86 = add i8 %75, 1
  store i8 %86, ptr %17, align 8, !tbaa !40
  %87 = zext nneg i32 %.114.i.i28 to i64
  %88 = getelementptr inbounds nuw [24 x i8], ptr %42, i64 0, i64 %87
  store i8 %86, ptr %88, align 1, !tbaa !47
  %89 = add nuw nsw i32 %.01119.i.i23, 1
  %exitcond21.not.i.i33 = icmp eq i32 %89, 24
  br i1 %exitcond21.not.i.i33, label %._crit_edge.i.i34, label %.preheader.i.i22, !llvm.loop !69

._crit_edge.i.i34:                                ; preds = %85
  %.pre.i.i35 = load i8, ptr %17, align 8, !tbaa !40
  br label %_ZN6icu_778Calendar16recalculateStampEv.exit.i32

_ZN6icu_778Calendar16recalculateStampEv.exit.i32: ; preds = %83, %._crit_edge.i.i34
  %90 = phi i8 [ %.pre.i.i35, %._crit_edge.i.i34 ], [ %75, %83 ]
  %91 = add i8 %90, 1
  %.pre87 = load i8, ptr %8, align 8
  br label %92

92:                                               ; preds = %_ZN6icu_778Calendar16recalculateStampEv.exit.i32, %67
  %93 = phi i8 [ %.pre87, %_ZN6icu_778Calendar16recalculateStampEv.exit.i32 ], [ %68, %67 ]
  %94 = phi i8 [ %91, %_ZN6icu_778Calendar16recalculateStampEv.exit.i32 ], [ %70, %67 ]
  %95 = add i8 %94, 1
  %96 = getelementptr inbounds nuw i8, ptr %0, i64 109
  store i8 %94, ptr %96, align 1, !tbaa !47
  %97 = and i8 %93, -12
  store i8 %97, ptr %8, align 8
  %98 = getelementptr inbounds nuw i8, ptr %0, i64 52
  store i32 %4, ptr %98, align 4, !tbaa !12
  %99 = icmp eq i8 %95, 127
  br i1 %99, label %100, label %119

100:                                              ; preds = %92
  store i8 1, ptr %17, align 8, !tbaa !40
  br label %.preheader.i.i38

.preheader.i.i38:                                 ; preds = %111, %100
  %.01119.i.i39 = phi i32 [ 0, %100 ], [ %115, %111 ]
  %101 = load i8, ptr %17, align 8, !tbaa !40
  br label %102

102:                                              ; preds = %102, %.preheader.i.i38
  %indvars.iv.i.i40 = phi i64 [ 0, %.preheader.i.i38 ], [ %indvars.iv.next.i.i46, %102 ]
  %.01217.i.i41 = phi i32 [ 127, %.preheader.i.i38 ], [ %.1.i.i45, %102 ]
  %.01316.i.i42 = phi i32 [ -1, %.preheader.i.i38 ], [ %.114.i.i44, %102 ]
  %103 = getelementptr inbounds nuw [24 x i8], ptr %42, i64 0, i64 %indvars.iv.i.i40
  %104 = load i8, ptr %103, align 1, !tbaa !47
  %105 = sext i8 %104 to i32
  %106 = icmp sgt i8 %104, %101
  %107 = icmp sgt i32 %.01217.i.i41, %105
  %or.cond.i.i43 = select i1 %106, i1 %107, i1 false
  %108 = trunc nuw nsw i64 %indvars.iv.i.i40 to i32
  %.114.i.i44 = select i1 %or.cond.i.i43, i32 %108, i32 %.01316.i.i42
  %.1.i.i45 = select i1 %or.cond.i.i43, i32 %105, i32 %.01217.i.i41
  %indvars.iv.next.i.i46 = add nuw nsw i64 %indvars.iv.i.i40, 1
  %exitcond.not.i.i47 = icmp eq i64 %indvars.iv.next.i.i46, 24
  br i1 %exitcond.not.i.i47, label %109, label %102, !llvm.loop !68

109:                                              ; preds = %102
  %110 = icmp sgt i32 %.114.i.i44, -1
  br i1 %110, label %111, label %_ZN6icu_778Calendar16recalculateStampEv.exit.i48

111:                                              ; preds = %109
  %112 = add i8 %101, 1
  store i8 %112, ptr %17, align 8, !tbaa !40
  %113 = zext nneg i32 %.114.i.i44 to i64
  %114 = getelementptr inbounds nuw [24 x i8], ptr %42, i64 0, i64 %113
  store i8 %112, ptr %114, align 1, !tbaa !47
  %115 = add nuw nsw i32 %.01119.i.i39, 1
  %exitcond21.not.i.i49 = icmp eq i32 %115, 24
  br i1 %exitcond21.not.i.i49, label %._crit_edge.i.i50, label %.preheader.i.i38, !llvm.loop !69

._crit_edge.i.i50:                                ; preds = %111
  %.pre.i.i51 = load i8, ptr %17, align 8, !tbaa !40
  br label %_ZN6icu_778Calendar16recalculateStampEv.exit.i48

_ZN6icu_778Calendar16recalculateStampEv.exit.i48: ; preds = %109, %._crit_edge.i.i50
  %116 = phi i8 [ %.pre.i.i51, %._crit_edge.i.i50 ], [ %101, %109 ]
  %117 = add i8 %116, 1
  %.pre88 = load i8, ptr %8, align 8
  %118 = and i8 %.pre88, -12
  br label %119

119:                                              ; preds = %_ZN6icu_778Calendar16recalculateStampEv.exit.i48, %92
  %120 = phi i8 [ %118, %_ZN6icu_778Calendar16recalculateStampEv.exit.i48 ], [ %97, %92 ]
  %121 = phi i8 [ %117, %_ZN6icu_778Calendar16recalculateStampEv.exit.i48 ], [ %95, %92 ]
  %122 = add i8 %121, 1
  %123 = getelementptr inbounds nuw i8, ptr %0, i64 115
  store i8 %121, ptr %123, align 1, !tbaa !47
  store i8 %120, ptr %8, align 8
  %124 = getelementptr inbounds nuw i8, ptr %0, i64 56
  store i32 %5, ptr %124, align 8, !tbaa !12
  %125 = icmp eq i8 %122, 127
  br i1 %125, label %126, label %_ZN6icu_778Calendar3setE19UCalendarDateFieldsi.exit68

126:                                              ; preds = %119
  store i8 1, ptr %17, align 8, !tbaa !40
  br label %.preheader.i.i54

.preheader.i.i54:                                 ; preds = %137, %126
  %.01119.i.i55 = phi i32 [ 0, %126 ], [ %141, %137 ]
  %127 = load i8, ptr %17, align 8, !tbaa !40
  br label %128

128:                                              ; preds = %128, %.preheader.i.i54
  %indvars.iv.i.i56 = phi i64 [ 0, %.preheader.i.i54 ], [ %indvars.iv.next.i.i62, %128 ]
  %.01217.i.i57 = phi i32 [ 127, %.preheader.i.i54 ], [ %.1.i.i61, %128 ]
  %.01316.i.i58 = phi i32 [ -1, %.preheader.i.i54 ], [ %.114.i.i60, %128 ]
  %129 = getelementptr inbounds nuw [24 x i8], ptr %42, i64 0, i64 %indvars.iv.i.i56
  %130 = load i8, ptr %129, align 1, !tbaa !47
  %131 = sext i8 %130 to i32
  %132 = icmp sgt i8 %130, %127
  %133 = icmp sgt i32 %.01217.i.i57, %131
  %or.cond.i.i59 = select i1 %132, i1 %133, i1 false
  %134 = trunc nuw nsw i64 %indvars.iv.i.i56 to i32
  %.114.i.i60 = select i1 %or.cond.i.i59, i32 %134, i32 %.01316.i.i58
  %.1.i.i61 = select i1 %or.cond.i.i59, i32 %131, i32 %.01217.i.i57
  %indvars.iv.next.i.i62 = add nuw nsw i64 %indvars.iv.i.i56, 1
  %exitcond.not.i.i63 = icmp eq i64 %indvars.iv.next.i.i62, 24
  br i1 %exitcond.not.i.i63, label %135, label %128, !llvm.loop !68

135:                                              ; preds = %128
  %136 = icmp sgt i32 %.114.i.i60, -1
  br i1 %136, label %137, label %_ZN6icu_778Calendar16recalculateStampEv.exit.i64

137:                                              ; preds = %135
  %138 = add i8 %127, 1
  store i8 %138, ptr %17, align 8, !tbaa !40
  %139 = zext nneg i32 %.114.i.i60 to i64
  %140 = getelementptr inbounds nuw [24 x i8], ptr %42, i64 0, i64 %139
  store i8 %138, ptr %140, align 1, !tbaa !47
  %141 = add nuw nsw i32 %.01119.i.i55, 1
  %exitcond21.not.i.i65 = icmp eq i32 %141, 24
  br i1 %exitcond21.not.i.i65, label %._crit_edge.i.i66, label %.preheader.i.i54, !llvm.loop !69

._crit_edge.i.i66:                                ; preds = %137
  %.pre.i.i67 = load i8, ptr %17, align 8, !tbaa !40
  br label %_ZN6icu_778Calendar16recalculateStampEv.exit.i64

_ZN6icu_778Calendar16recalculateStampEv.exit.i64: ; preds = %135, %._crit_edge.i.i66
  %142 = phi i8 [ %.pre.i.i67, %._crit_edge.i.i66 ], [ %127, %135 ]
  %143 = add i8 %142, 1
  %.pre89 = load i8, ptr %8, align 8
  br label %_ZN6icu_778Calendar3setE19UCalendarDateFieldsi.exit68

_ZN6icu_778Calendar3setE19UCalendarDateFieldsi.exit68: ; preds = %119, %_ZN6icu_778Calendar16recalculateStampEv.exit.i64
  %144 = phi i8 [ %.pre89, %_ZN6icu_778Calendar16recalculateStampEv.exit.i64 ], [ %120, %119 ]
  %145 = phi i8 [ %143, %_ZN6icu_778Calendar16recalculateStampEv.exit.i64 ], [ %122, %119 ]
  %146 = add i8 %145, 1
  store i8 %146, ptr %17, align 8, !tbaa !40
  %147 = getelementptr inbounds nuw i8, ptr %0, i64 116
  store i8 %145, ptr %147, align 4, !tbaa !47
  %148 = and i8 %144, -12
  store i8 %148, ptr %8, align 8
  ret void
}